; Function Attrs: mustprogress nofree norecurse nosync nounwind null_pointer_is_valid sspstrong willreturn memory(argmem: read) uwtable
define hidden range(i32 0, 65536) i32 @get_xdlc_control(ptr noundef readonly captures(none) %0, i32 noundef %1, i1 noundef zeroext %2) local_unnamed_addr #0 {
  %4 = sext i32 %1 to i64
  %5 = getelementptr i8, ptr %0, i64 %4
  %6 = load i8, ptr %5, align 1
  %7 = and i8 %6, 3
  %cond = icmp eq i8 %7, 3
  br i1 %cond, label %17, label %8

8:                                                ; preds = %3
  br i1 %2, label %9, label %15

9:                                                ; preds = %8
  %10 = getelementptr i8, ptr %5, i64 1
  %.val9 = load i8, ptr %10, align 1
  %11 = zext i8 %.val9 to i32
  %12 = shl nuw nsw i32 %11, 8
  %13 = zext i8 %6 to i32
  %14 = or disjoint i32 %12, %13
  br label %19

15:                                               ; preds = %8
  %16 = zext i8 %6 to i32
  br label %19

17:                                               ; preds = %3
  %18 = zext i8 %6 to i32
  br label %19

19:                                               ; preds = %9, %15, %17
  %.0 = phi i32 [ %18, %17 ], [ %14, %9 ], [ %16, %15 ]
  ret i32 %.0
}